target datalayout = "e-m:e-p270:32:32-p271:32:32-p272:64:64-i64:64-i128:128-f80:128-n8:16:32:64-S128"
target triple = "x86_64-pc-linux-gnu"

%struct._object = type { %union.anon, ptr }
%union.anon = type { i64 }
%struct.DictRemoverObject = type { %struct._object, ptr, ptr }
%struct.anon = type { i32, i32 }

@_Py_NoneStruct = external global %struct._object, align 8
@.str.237 = private unnamed_addr constant [52 x i8] c"Exception ignored while calling _ctypes.DictRemover\00", align 1

; Function Attrs: alwaysinline nounwind uwtable
define internal i32 @_Py_IsImmortal(ptr noundef %0) #4 {
  %2 = alloca ptr, align 8
  store ptr %0, ptr %2, align 8, !tbaa !7
  %3 = load ptr, ptr %2, align 8, !tbaa !7
  %4 = getelementptr inbounds nuw %struct._object, ptr %3, i32 0, i32 0
  %5 = getelementptr inbounds nuw %struct.anon, ptr %4, i32 0, i32 0
  %6 = load i32, ptr %5, align 8, !tbaa !20
  %7 = icmp slt i32 %6, 0
  %8 = zext i1 %7 to i32
  ret i32 %8
}

; Function Attrs: alwaysinline nounwind uwtable
define internal void @Py_DECREF(ptr noundef %0) #4 {
  %2 = alloca ptr, align 8
  store ptr %0, ptr %2, align 8, !tbaa !7
  %3 = load ptr, ptr %2, align 8, !tbaa !7
  %4 = call i32 @_Py_IsImmortal(ptr noundef %3)
  %5 = icmp ne i32 %4, 0
  br i1 %5, label %6, label %7

6:                                                ; preds = %1
  br label %16

7:                                                ; preds = %1
  %8 = load ptr, ptr %2, align 8, !tbaa !7
  %9 = getelementptr inbounds nuw %struct._object, ptr %8, i32 0, i32 0
  %10 = getelementptr inbounds nuw %struct.anon, ptr %9, i32 0, i32 0
  %11 = load i32, ptr %10, align 8, !tbaa !20
  %12 = add i32 %11, -1
  store i32 %12, ptr %10, align 8, !tbaa !20
  %13 = icmp eq i32 %12, 0
  br i1 %13, label %14, label %16

14:                                               ; preds = %7
  %15 = load ptr, ptr %2, align 8, !tbaa !7
  call void @_Py_Dealloc(ptr noundef %15)
  br label %16

16:                                               ; preds = %6, %14, %7
  ret void
}

; Function Attrs: nounwind uwtable
define internal ptr @_DictRemover_call(ptr noundef %0, ptr noundef %1, ptr noundef %2) #0 {
  %4 = alloca ptr, align 8
  %5 = alloca ptr, align 8
  %6 = alloca ptr, align 8
  %7 = alloca ptr, align 8
  %8 = alloca ptr, align 8
  %9 = alloca ptr, align 8
  %10 = alloca ptr, align 8
  %11 = alloca ptr, align 8
  store ptr %0, ptr %4, align 8, !tbaa !7
  store ptr %1, ptr %5, align 8, !tbaa !7
  store ptr %2, ptr %6, align 8, !tbaa !7
  call void @llvm.lifetime.start.p0(i64 8, ptr %7) #9
  %12 = load ptr, ptr %4, align 8, !tbaa !7
  store ptr %12, ptr %7, align 8, !tbaa !3
  %13 = load ptr, ptr %7, align 8, !tbaa !3
  %14 = getelementptr inbounds nuw %struct.DictRemoverObject, ptr %13, i32 0, i32 1
  %15 = load ptr, ptr %14, align 8, !tbaa !12
  %16 = icmp ne ptr %15, null
  br i1 %16, label %17, label %59

17:                                               ; preds = %3
  %18 = load ptr, ptr %7, align 8, !tbaa !3
  %19 = getelementptr inbounds nuw %struct.DictRemoverObject, ptr %18, i32 0, i32 2
  %20 = load ptr, ptr %19, align 8, !tbaa !15
  %21 = icmp ne ptr %20, null
  br i1 %21, label %22, label %59

22:                                               ; preds = %17
  %23 = load ptr, ptr %7, align 8, !tbaa !3
  %24 = getelementptr inbounds nuw %struct.DictRemoverObject, ptr %23, i32 0, i32 2
  %25 = load ptr, ptr %24, align 8, !tbaa !15
  %26 = load ptr, ptr %7, align 8, !tbaa !3
  %27 = getelementptr inbounds nuw %struct.DictRemoverObject, ptr %26, i32 0, i32 1
  %28 = load ptr, ptr %27, align 8, !tbaa !12
  %29 = call i32 @PyDict_DelItem(ptr noundef %25, ptr noundef %28)
  %30 = icmp eq i32 -1, %29
  br i1 %30, label %31, label %32

31:                                               ; preds = %22
  call void (ptr, ...) @PyErr_FormatUnraisable(ptr noundef @.str.237)
  br label %32

32:                                               ; preds = %31, %22
  br label %33

33:                                               ; preds = %32
  call void @llvm.lifetime.start.p0(i64 8, ptr %8) #9
  %34 = load ptr, ptr %7, align 8, !tbaa !3
  %35 = getelementptr inbounds nuw %struct.DictRemoverObject, ptr %34, i32 0, i32 1
  store ptr %35, ptr %8, align 8, !tbaa !21
  call void @llvm.lifetime.start.p0(i64 8, ptr %9) #9
  %36 = load ptr, ptr %8, align 8, !tbaa !21
  %37 = load ptr, ptr %36, align 8, !tbaa !7
  store ptr %37, ptr %9, align 8, !tbaa !7
  %38 = load ptr, ptr %9, align 8, !tbaa !7
  %39 = icmp ne ptr %38, null
  br i1 %39, label %40, label %43

40:                                               ; preds = %33
  %41 = load ptr, ptr %8, align 8, !tbaa !21
  store ptr null, ptr %41, align 8, !tbaa !7
  %42 = load ptr, ptr %9, align 8, !tbaa !7
  call void @Py_DECREF(ptr noundef %42)
  br label %43

43:                                               ; preds = %40, %33
  call void @llvm.lifetime.end.p0(i64 8, ptr %9) #9
  call void @llvm.lifetime.end.p0(i64 8, ptr %8) #9
  br label %44

44:                                               ; preds = %43
  br label %45

45:                                               ; preds = %44
  br label %46

46:                                               ; preds = %45
  call void @llvm.lifetime.start.p0(i64 8, ptr %10) #9
  %47 = load ptr, ptr %7, align 8, !tbaa !3
  %48 = getelementptr inbounds nuw %struct.DictRemoverObject, ptr %47, i32 0, i32 2
  store ptr %48, ptr %10, align 8, !tbaa !21
  call void @llvm.lifetime.start.p0(i64 8, ptr %11) #9
  %49 = load ptr, ptr %10, align 8, !tbaa !21
  %50 = load ptr, ptr %49, align 8, !tbaa !7
  store ptr %50, ptr %11, align 8, !tbaa !7
  %51 = load ptr, ptr %11, align 8, !tbaa !7
  %52 = icmp ne ptr %51, null
  br i1 %52, label %53, label %56

53:                                               ; preds = %46
  %54 = load ptr, ptr %10, align 8, !tbaa !21
  store ptr null, ptr %54, align 8, !tbaa !7
  %55 = load ptr, ptr %11, align 8, !tbaa !7
  call void @Py_DECREF(ptr noundef %55)
  br label %56

56:                                               ; preds = %53, %46
  call void @llvm.lifetime.end.p0(i64 8, ptr %11) #9
  call void @llvm.lifetime.end.p0(i64 8, ptr %10) #9
  br label %57

57:                                               ; preds = %56
  br label %58

58:                                               ; preds = %57
  br label %59

59:                                               ; preds = %58, %17, %3
  call void @llvm.lifetime.end.p0(i64 8, ptr %7) #9
  ret ptr @_Py_NoneStruct
}