; Function Attrs: nounwind uwtable
define internal noundef nonnull ptr @_DictRemover_call(ptr noundef captures(none) %0, ptr readnone captures(none) %1, ptr readnone captures(none) %2) #0 {
  %4 = getelementptr inbounds nuw i8, ptr %0, i64 16
  %5 = load ptr, ptr %4, align 8, !tbaa !24
  %.not = icmp eq ptr %5, null
  br i1 %.not, label %Py_DECREF.exit, label %6

6:                                                ; preds = %3
  %7 = getelementptr inbounds nuw i8, ptr %0, i64 24
  %8 = load ptr, ptr %7, align 8, !tbaa !26
  %.not18 = icmp eq ptr %8, null
  br i1 %.not18, label %Py_DECREF.exit, label %9

9:                                                ; preds = %6
  %10 = tail call i32 @PyDict_DelItem(ptr noundef nonnull %8, ptr noundef nonnull %5) #17
  %11 = icmp eq i32 %10, -1
  br i1 %11, label %12, label %13

12:                                               ; preds = %9
  tail call void (ptr, ...) @PyErr_FormatUnraisable(ptr noundef nonnull @.str.237) #17
  br label %13

13:                                               ; preds = %9, %12
  %14 = load ptr, ptr %4, align 8, !tbaa !27
  %.not19 = icmp eq ptr %14, null
  br i1 %.not19, label %Py_DECREF.exit22, label %15

15:                                               ; preds = %13
  store ptr null, ptr %4, align 8, !tbaa !27
  %16 = load i32, ptr %14, align 8, !tbaa !23
  %.not.i21 = icmp sgt i32 %16, -1
  br i1 %.not.i21, label %17, label %Py_DECREF.exit22

17:                                               ; preds = %15
  %18 = add nsw i32 %16, -1
  store i32 %18, ptr %14, align 8, !tbaa !23
  %19 = icmp eq i32 %18, 0
  br i1 %19, label %20, label %Py_DECREF.exit22

20:                                               ; preds = %17
  tail call void @_Py_Dealloc(ptr noundef nonnull %14) #17
  br label %Py_DECREF.exit22

Py_DECREF.exit22:                                 ; preds = %20, %17, %15, %13
  %21 = load ptr, ptr %7, align 8, !tbaa !27
  %.not20 = icmp eq ptr %21, null
  br i1 %.not20, label %Py_DECREF.exit, label %22

22:                                               ; preds = %Py_DECREF.exit22
  store ptr null, ptr %7, align 8, !tbaa !27
  %23 = load i32, ptr %21, align 8, !tbaa !23
  %.not.i = icmp sgt i32 %23, -1
  br i1 %.not.i, label %24, label %Py_DECREF.exit

24:                                               ; preds = %22
  %25 = add nsw i32 %23, -1
  store i32 %25, ptr %21, align 8, !tbaa !23
  %26 = icmp eq i32 %25, 0
  br i1 %26, label %27, label %Py_DECREF.exit

27:                                               ; preds = %24
  tail call void @_Py_Dealloc(ptr noundef nonnull %21) #17
  br label %Py_DECREF.exit

Py_DECREF.exit:                                   ; preds = %27, %24, %22, %Py_DECREF.exit22, %6, %3
  ret ptr @_Py_NoneStruct
}